target datalayout = "e-m:e-p270:32:32-p271:32:32-p272:64:64-i64:64-i128:128-f80:128-n8:16:32:64-S128"
target triple = "x86_64-pc-linux-gnu"

@provider_name = internal global ptr null, align 8
@libctx = internal global ptr null, align 8
@.str.33 = private unnamed_addr constant [39 x i8] c"../openssl/test/provider_status_test.c\00", align 1
@.str.34 = private unnamed_addr constant [49 x i8] c"prov = OSSL_PROVIDER_load(libctx, provider_name)\00", align 1

; Function Attrs: nounwind uwtable
define internal i32 @test_provider_gettable_params() #0 {
  %1 = alloca i32, align 4
  %2 = alloca ptr, align 8
  %3 = alloca i32, align 4
  %4 = alloca i32, align 4
  call void @llvm.lifetime.start.p0(i64 8, ptr %2) #5
  call void @llvm.lifetime.start.p0(i64 4, ptr %3) #5
  %5 = load ptr, ptr @libctx, align 8, !tbaa !13
  %6 = load ptr, ptr @provider_name, align 8, !tbaa !4
  %7 = call ptr @OSSL_PROVIDER_load(ptr noundef %5, ptr noundef %6)
  store ptr %7, ptr %2, align 8, !tbaa !20
  %8 = call i32 @test_ptr(ptr noundef @.str.33, i32 noundef 209, ptr noundef @.str.34, ptr noundef %7)
  %9 = icmp ne i32 %8, 0
  br i1 %9, label %11, label %10

10:                                               ; preds = %0
  store i32 0, ptr %1, align 4
  store i32 1, ptr %4, align 4
  br label %17

11:                                               ; preds = %0
  %12 = load ptr, ptr %2, align 8, !tbaa !20
  %13 = call i32 @get_provider_params(ptr noundef %12)
  store i32 %13, ptr %3, align 4, !tbaa !9
  %14 = load ptr, ptr %2, align 8, !tbaa !20
  %15 = call i32 @OSSL_PROVIDER_unload(ptr noundef %14)
  %16 = load i32, ptr %3, align 4, !tbaa !9
  store i32 %16, ptr %1, align 4
  store i32 1, ptr %4, align 4
  br label %17

17:                                               ; preds = %11, %10
  call void @llvm.lifetime.end.p0(i64 4, ptr %3) #5
  call void @llvm.lifetime.end.p0(i64 8, ptr %2) #5
  %18 = load i32, ptr %1, align 4
  ret i32 %18
}