; Function Attrs: nounwind uwtable
define internal range(i32 0, 2) i32 @test_provider_gettable_params() #1 {
  %1 = load ptr, ptr @libctx, align 8, !tbaa !11
  %2 = load ptr, ptr @provider_name, align 8, !tbaa !6
  %3 = tail call ptr @OSSL_PROVIDER_load(ptr noundef %1, ptr noundef %2) #6
  %4 = tail call i32 @test_ptr(ptr noundef nonnull @.str.33, i32 noundef 209, ptr noundef nonnull @.str.34, ptr noundef %3) #6
  %.not = icmp eq i32 %4, 0
  br i1 %.not, label %8, label %5

5:                                                ; preds = %0
  %6 = tail call fastcc i32 @get_provider_params(ptr noundef %3)
  %7 = tail call i32 @OSSL_PROVIDER_unload(ptr noundef %3) #6
  br label %8

8:                                                ; preds = %0, %5
  %.0 = phi i32 [ %6, %5 ], [ 0, %0 ]
  ret i32 %.0
}